; Function Attrs: mustprogress nounwind uwtable
define dso_local void @_ZN5clang16OMPClausePrinter17VisitOMPUseClauseEPNS_12OMPUseClauseE(ptr noundef nonnull readonly align 8 captures(none) dereferenceable(16) %0, ptr noundef readonly captures(none) %1) local_unnamed_addr #1 align 2 {
  %3 = alloca %"class.llvm::StringRef", align 8
  %4 = load ptr, ptr %0, align 8
  %5 = getelementptr inbounds nuw i8, ptr %4, i64 24
  %6 = load ptr, ptr %5, align 8
  %7 = getelementptr inbounds nuw i8, ptr %4, i64 32
  %8 = load ptr, ptr %7, align 8
  %9 = ptrtoint ptr %6 to i64
  %10 = ptrtoint ptr %8 to i64
  %11 = sub i64 %9, %10
  %12 = icmp ult i64 %11, 4
  br i1 %12, label %13, label %15

13:                                               ; preds = %2
  %14 = tail call noundef nonnull align 8 dereferenceable(48) ptr @_ZN4llvm11raw_ostream5writeEPKcm(ptr noundef nonnull align 8 dereferenceable(48) %4, ptr noundef nonnull @.str.68, i64 noundef 4) #22
  br label %_ZN4llvm11raw_ostreamlsEPKc.exit

15:                                               ; preds = %2
  store i32 677737333, ptr %8, align 1
  %16 = load ptr, ptr %7, align 8
  %17 = getelementptr inbounds nuw i8, ptr %16, i64 4
  store ptr %17, ptr %7, align 8
  br label %_ZN4llvm11raw_ostreamlsEPKc.exit

_ZN4llvm11raw_ostreamlsEPKc.exit:                 ; preds = %13, %15
  %18 = getelementptr inbounds nuw i8, ptr %1, i64 24
  %19 = load ptr, ptr %18, align 8
  %20 = load ptr, ptr %0, align 8
  %21 = getelementptr inbounds nuw i8, ptr %0, i64 8
  %22 = load ptr, ptr %21, align 8
  store ptr @.str.2, ptr %3, align 8
  %23 = getelementptr inbounds nuw i8, ptr %3, i64 8
  store i64 1, ptr %23, align 8
  tail call void @_ZNK5clang4Stmt11printPrettyERN4llvm11raw_ostreamEPNS_13PrinterHelperERKNS_14PrintingPolicyEjNS1_9StringRefEPKNS_10ASTContextE(ptr noundef nonnull align 8 dereferenceable(8) %19, ptr noundef nonnull align 8 dereferenceable(48) %20, ptr noundef null, ptr noundef nonnull align 8 dereferenceable(16) %22, i32 noundef 0, ptr noundef nonnull byval(%"class.llvm::StringRef") align 8 %3, ptr noundef null) #22
  %24 = load ptr, ptr %0, align 8
  %25 = getelementptr inbounds nuw i8, ptr %24, i64 24
  %26 = load ptr, ptr %25, align 8
  %27 = getelementptr inbounds nuw i8, ptr %24, i64 32
  %28 = load ptr, ptr %27, align 8
  %29 = icmp eq ptr %26, %28
  br i1 %29, label %30, label %32

30:                                               ; preds = %_ZN4llvm11raw_ostreamlsEPKc.exit
  %31 = tail call noundef nonnull align 8 dereferenceable(48) ptr @_ZN4llvm11raw_ostream5writeEPKcm(ptr noundef nonnull align 8 dereferenceable(48) %24, ptr noundef nonnull @.str.3, i64 noundef 1) #22
  br label %_ZN4llvm11raw_ostreamlsEPKc.exit4

32:                                               ; preds = %_ZN4llvm11raw_ostreamlsEPKc.exit
  store i8 41, ptr %28, align 1
  %33 = load ptr, ptr %27, align 8
  %34 = getelementptr inbounds nuw i8, ptr %33, i64 1
  store ptr %34, ptr %27, align 8
  br label %_ZN4llvm11raw_ostreamlsEPKc.exit4

_ZN4llvm11raw_ostreamlsEPKc.exit4:                ; preds = %30, %32
  ret void
}